; Function Attrs: mustprogress nofree nosync nounwind memory(readwrite, inaccessiblemem: none) uwtable
define dso_local void @_ZN4Luau7CodeGen9removeUseERNS0_10IrFunctionENS0_4IrOpE(ptr noundef nonnull align 8 dereferenceable(624) %0, i32 %1) local_unnamed_addr #2 {
  %3 = and i32 %1, 15
  switch i32 %3, label %_ZN4Luau7CodeGenL13removeInstUseERNS0_10IrFunctionEj.exit [
    i32 4, label %4
    i32 5, label %15
  ]

4:                                                ; preds = %2
  %5 = lshr i32 %1, 4
  %6 = getelementptr inbounds nuw i8, ptr %0, i64 24
  %7 = zext nneg i32 %5 to i64
  %8 = load ptr, ptr %6, align 8, !tbaa !4
  %9 = getelementptr inbounds nuw %"struct.Luau::CodeGen::IrInst", ptr %8, i64 %7
  %10 = getelementptr inbounds nuw i8, ptr %9, i64 36
  %11 = load i16, ptr %10, align 4, !tbaa !10
  %12 = add i16 %11, -1
  store i16 %12, ptr %10, align 4, !tbaa !10
  %13 = icmp eq i16 %12, 0
  br i1 %13, label %14, label %_ZN4Luau7CodeGenL13removeInstUseERNS0_10IrFunctionEj.exit

14:                                               ; preds = %4
  tail call void @_ZN4Luau7CodeGen4killERNS0_10IrFunctionERNS0_6IrInstE(ptr noundef nonnull align 8 dereferenceable(624) %0, ptr noundef nonnull align 4 dereferenceable(43) %9)
  br label %_ZN4Luau7CodeGenL13removeInstUseERNS0_10IrFunctionEj.exit

15:                                               ; preds = %2
  %16 = lshr i32 %1, 4
  %17 = zext nneg i32 %16 to i64
  %18 = load ptr, ptr %0, align 8, !tbaa !22
  %19 = getelementptr inbounds nuw %"struct.Luau::CodeGen::IrBlock", ptr %18, i64 %17
  %20 = getelementptr inbounds nuw i8, ptr %19, i64 2
  %21 = load i16, ptr %20, align 2, !tbaa !25
  %22 = add i16 %21, -1
  store i16 %22, ptr %20, align 2, !tbaa !25
  %23 = icmp eq i16 %22, 0
  %24 = icmp ugt i32 %1, 15
  %or.cond.i = and i1 %24, %23
  br i1 %or.cond.i, label %25, label %_ZN4Luau7CodeGenL13removeInstUseERNS0_10IrFunctionEj.exit

25:                                               ; preds = %15
  store i8 4, ptr %19, align 4, !tbaa !29
  %26 = getelementptr inbounds nuw i8, ptr %19, i64 4
  %27 = load i32, ptr %26, align 4, !tbaa !30
  %28 = getelementptr inbounds nuw i8, ptr %19, i64 8
  %29 = load i32, ptr %28, align 4, !tbaa !31
  %.not.i6.i = icmp slt i32 %29, %27
  br i1 %.not.i6.i, label %_ZN4Luau7CodeGen4killERNS0_10IrFunctionERNS0_7IrBlockE.exit, label %.lr.ph.i

.lr.ph.i:                                         ; preds = %25
  %30 = getelementptr inbounds nuw i8, ptr %0, i64 24
  %31 = sext i32 %29 to i64
  %32 = sext i32 %27 to i64
  br label %33

33:                                               ; preds = %39, %.lr.ph.i
  %indvars.iv.i = phi i64 [ %31, %.lr.ph.i ], [ %indvars.iv.next.i, %39 ]
  %34 = load ptr, ptr %30, align 8, !tbaa !4
  %35 = getelementptr inbounds nuw %"struct.Luau::CodeGen::IrInst", ptr %34, i64 %indvars.iv.i
  %36 = load i8, ptr %35, align 4, !tbaa !32
  %37 = icmp eq i8 %36, 0
  br i1 %37, label %39, label %38

38:                                               ; preds = %33
  tail call void @_ZN4Luau7CodeGen4killERNS0_10IrFunctionERNS0_6IrInstE(ptr noundef nonnull align 8 dereferenceable(624) %0, ptr noundef nonnull align 4 dereferenceable(43) %35)
  br label %39

39:                                               ; preds = %38, %33
  %indvars.iv.next.i = add nsw i64 %indvars.iv.i, -1
  %.not.i.not.i = icmp sgt i64 %indvars.iv.i, %32
  br i1 %.not.i.not.i, label %33, label %_ZN4Luau7CodeGen4killERNS0_10IrFunctionERNS0_7IrBlockE.exit, !llvm.loop !33

_ZN4Luau7CodeGen4killERNS0_10IrFunctionERNS0_7IrBlockE.exit: ; preds = %39, %25
  store i32 -1, ptr %26, align 4, !tbaa !30
  store i32 -1, ptr %28, align 4, !tbaa !31
  br label %_ZN4Luau7CodeGenL13removeInstUseERNS0_10IrFunctionEj.exit

_ZN4Luau7CodeGenL13removeInstUseERNS0_10IrFunctionEj.exit: ; preds = %_ZN4Luau7CodeGen4killERNS0_10IrFunctionERNS0_7IrBlockE.exit, %15, %14, %4, %2
  ret void
}